; Function Attrs: nounwind uwtable
define internal i32 @archive_write_newc_finish_entry(ptr noundef %0) #0 {
  %2 = getelementptr inbounds nuw i8, ptr %0, i64 248
  %3 = load ptr, ptr %2, align 8, !tbaa !17
  %4 = load i64, ptr %3, align 8, !tbaa !33
  %5 = getelementptr inbounds nuw i8, ptr %3, i64 8
  %6 = load i32, ptr %5, align 8, !tbaa !34
  %7 = sext i32 %6 to i64
  %8 = add i64 %4, %7
  %9 = tail call i32 @__archive_write_nulls(ptr noundef %0, i64 noundef %8) #11
  ret i32 %9
}